Certificate:
    Data:
        Version: 1 (0x0)
        Serial Number:
            e7:83:d5:c7:08:d0:0c:83
    Signature Algorithm: NULL
        Issuer: CN = db
        Validity
            Not Before: Apr  1 18:14:34 2019 GMT
            Not After : Mar 29 18:14:34 2029 GMT
        Subject: CN = db
        Subject Public Key Info:
            Public Key Algorithm: rsaEncryption
                Public-Key: (2048 bit)
                Modulus:
                    00:c8:b2:a2:ee:ca:2f:46:5d:2a:8b:a3:36:b9:f9:
                    af:92:1e:56:8b:e2:1d:4a:8e:93:36:08:ef:1d:ab:
                    51:4d:57:fb:3d:17:93:46:09:fb:b7:4e:59:07:8f:
                    48:a4:66:16:fb:06:cb:74:ec:78:d7:cb:81:c5:3c:
                    d1:b9:08:5c:02:ba:30:1c:84:63:6b:93:7e:dc:50:
                    28:2b:c8:6a:27:7c:61:ff:a5:80:83:55:03:7c:29:
                    f3:ac:ac:65:48:79:53:4f:16:b8:fa:69:5f:d8:24:
                    a0:85:e8:7f:96:a2:78:ef:95:af:f3:8d:04:33:35:
                    c4:68:ac:16:06:15:27:eb:69:d4:26:4e:0e:79:14:
                    19:25:d3:9f:2a:9b:6f:26:75:7a:55:1e:ae:b4:1f:
                    32:30:68:f4:8e:c9:70:29:46:69:65:69:35:9d:b7:
                    d9:d0:93:80:ca:80:2d:86:3f:88:f1:ce:e5:27:f9:
                    90:23:3d:0a:9d:ad:6c:d3:c0:65:fd:d6:95:c0:ad:
                    71:8a:60:6b:aa:f5:5b:40:39:13:5f:4e:d8:cb:0f:
                    9c:df:07:33:20:9a:15:cd:0e:c7:08:cd:b7:47:8c:
                    a9:3b:9d:88:53:ec:c5:65:4a:e0:8d:95:f5:fd:a1:
                    9f:a9:4d:cb:45:0c:7a:20:5a:71:8f:1d:d3:b4:28:
                    fa:c3
                Exponent: 65537 (0x10001)
    Signature Algorithm: NULL
-----BEGIN CERTIFICATE-----
MIIC8DCCAdigAwIBAgIJAOeD1ccI0AyDMA0GCSqGSIb3DQEBCwUAMA0xCzAJBgNV
BAMMAmRiMB4XDTE5MDQwMTE4MTQzNFoXDTI5MDMyOTE4MTQzNFowDTELMAkGA1UE
AwwCZGIwggEiMA0GCSqGSIb3DQEBAQUAA4IBDwAwggEKAoIBAQDIsqLuyi9GXSqL
oza5+a+SHlaL4h1KjpM2CO8dq1FNV/s9F5NGCfu3TlkHj0ikZhb7Bst07HjXy4HF
PNG5CFwCujAchGNrk37cUCgryGonfGH/pYCDVQN8KfOsrGVIeVNPFrj6aV/YJKCF
6H+Wonjvla/zjQQzNcRorBYGFSfradQmTg55FBkl058qm28mdXpVHq60HzIwaPSO
yXApRmllaTWdt9nQk4DKgC2GP4jxzuUn+ZAjPQqdrWzTwGX91pXArXGKYGuq9VtA
ORNfTtjLD5zfBzMgmhXNDscIzbdHjKk7nYhT7MVlSuCNlfX9oZ+pTctFDHogWnGP
HdO0KPrDAgMBAAGjUzBRMB0GA1UdDgQWBBT20eA+ojhkGmOmjA8itQ0p46p1HjAf
BgNVHSMEGDAWgBT20eA+ojhkGmOmjA8itQ0p46p1HjAPBgNVHRMBAf8EBTADAQH/
MA0GCSqGSIb3DQEBCwUAA4IBAQDEd2+JJPfxo3omV45PlHPfUFIqeuCVYOU0kvDt
4eWJ9nvbgtmjASwvdbQXlUW/5Nsiy0rvllcwwIJo01yrmbqWBwe3nxhYKufFW66k
lYhfbMgvd70D7UsHoBCktzWiEOaTMFA0HrJbrPGbCpaWQFJLkPs38Ar12wHnyNrE
kGcGCp45QQP1Yy/JNrrjJmJFs0Pav3ecv5sjHrk8vqTLhXLFFZD29E/HNemo9vjB
ognJEBCbWJ7K+GRcNHBjgpnwneQXJi7Z7TBav7JH5bYfvq6K+heXeXbd+JZy1NkQ
vgo/SMpUs1/3ymbt+nnnLXF8r5s/1ZfDO0sent9zGYgTvtKk
-----END CERTIFICATE-----
