Certificate Request:
    Data:
        Version: 1 (0x0)
        Subject: CN = db
        Subject Public Key Info:
            Public Key Algorithm: rsaEncryption
                Public-Key: (2048 bit)
                Modulus:
                    00:cd:df:f4:f5:8d:0f:15:b9:ff:5d:9c:52:d0:bf:
                    40:56:e7:cd:c4:f0:c5:9a:2b:19:41:89:e9:d0:3c:
                    f3:47:7d:1b:23:4a:09:9a:bb:5e:47:72:45:06:e6:
                    68:5b:f0:48:07:73:71:80:26:3a:22:42:eb:a6:06:
                    88:e7:45:c6:f6:59:19:8a:a4:9d:04:44:01:f0:14:
                    b8:56:33:9f:13:d8:66:05:ac:51:5c:83:1d:b9:0a:
                    24:2e:28:4d:81:57:45:99:6b:4f:83:3c:bd:c6:5b:
                    32:e1:fe:41:65:a3:61:bf:1d:d0:83:d7:87:cc:e3:
                    db:e0:2c:b7:33:2c:03:3c:30:6e:e7:91:ea:a2:dd:
                    3b:16:87:b2:0a:f4:41:4a:b9:ca:28:ec:d5:41:51:
                    79:80:df:e8:03:48:11:c5:9e:88:6d:f7:01:c9:9b:
                    d9:e9:0e:0e:5f:7c:d2:3e:ba:33:c2:5e:a9:a0:66:
                    f3:fa:c5:c3:d8:3b:5f:79:e4:2e:a4:d2:88:68:8d:
                    f4:da:8e:ac:89:ee:00:1f:26:37:aa:71:8b:60:aa:
                    73:86:9a:98:5f:3b:5b:19:0b:3b:04:01:a8:5e:53:
                    23:0e:aa:64:4e:45:6a:33:09:15:bf:a2:b1:b7:fd:
                    8a:ad:b8:cd:84:a0:2e:67:80:e4:c7:51:3a:44:e5:
                    be:4f
                Exponent: 65537 (0x10001)
        Attributes:
            a0:00
    Signature Algorithm: sha256WithRSAEncryption
         5e:d3:c3:89:32:87:58:f0:2a:15:c4:76:74:36:d7:b5:7f:22:
         74:e1:f1:46:fe:05:be:8b:83:f8:c4:ad:b2:f3:4e:9c:3c:e0:
         42:d3:0c:3d:97:e4:15:c6:72:21:3a:08:6c:83:43:4e:5b:78:
         12:9a:c8:c6:35:ba:df:dc:d6:5f:b5:88:94:75:ff:fc:a8:bb:
         fd:d4:eb:c8:d7:2e:47:f3:50:ae:a5:09:73:49:d2:ab:32:02:
         4b:7b:6f:46:88:37:6b:59:8e:64:52:58:ec:a1:a1:ce:ba:21:
         85:5a:36:ba:ea:41:01:53:61:b5:09:32:48:7e:0b:2c:d6:e5:
         82:65:d5:4e:2c:3d:3e:43:79:1b:c9:a2:18:1b:dd:12:b8:b0:
         64:26:d6:94:36:fc:47:52:fd:4d:a8:1e:76:35:77:21:42:41:
         7a:9a:9e:49:6e:b2:d5:d7:e9:bb:ab:c1:dc:e1:d7:22:3a:7c:
         11:bc:28:20:37:bb:2d:4b:70:72:d5:b4:c6:9a:e1:35:d5:ee:
         d8:11:09:f2:8c:22:7b:32:31:7d:9f:05:12:17:93:e1:bc:26:
         c6:25:0a:ec:02:3c:6e:25:de:c2:4c:1b:89:eb:dd:b4:d4:73:
         5a:6a:ed:1c:43:49:d5:05:d1:4b:94:99:2a:5d:ee:30:a4:56:
         31:37:11:db
-----BEGIN CERTIFICATE REQUEST-----
MIICUjCCAToCAQAwDTELMAkGA1UEAwwCZGIwggEiMA0GCSqGSIb3DQEBAQUAA4IB
DwAwggEKAoIBAQDN3/T1jQ8Vuf9dnFLQv0BW583E8MWaKxlBienQPPNHfRsjSgma
u15HckUG5mhb8EgHc3GAJjoiQuumBojnRcb2WRmKpJ0ERAHwFLhWM58T2GYFrFFc
gx25CiQuKE2BV0WZa0+DPL3GWzLh/kFlo2G/HdCD14fM49vgLLczLAM8MG7nkeqi
3TsWh7IK9EFKucoo7NVBUXmA3+gDSBHFnoht9wHJm9npDg5ffNI+ujPCXqmgZvP6
xcPYO1955C6k0ohojfTajqyJ7gAfJjeqcYtgqnOGmphfO1sZCzsEAaheUyMOqmRO
RWozCRW/orG3/YqtuM2EoC5ngOTHUTpE5b5PAgMBAAGgADANBgkqhkiG9w0BAQsF
AAOCAQEAXtPDiTKHWPAqFcR2dDbXtX8idOHxRv4FvouD+MStsvNOnDzgQtMMPZfk
FcZyIToIbINDTlt4EprIxjW639zWX7WIlHX//Ki7/dTryNcuR/NQrqUJc0nSqzIC
S3tvRog3a1mOZFJY7KGhzrohhVo2uupBAVNhtQkySH4LLNblgmXVTiw9PkN5G8mi
GBvdEriwZCbWlDb8R1L9TagedjV3IUJBepqeSW6y1dfpu6vB3OHXIjp8EbwoIDe7
LUtwctW0xprhNdXu2BEJ8owiezIxfZ8FEheT4bwmxiUK7AI8biXewkwbievdtNRz
WmrtHENJ1QXRS5SZKl3uMKRWMTcR2w==
-----END CERTIFICATE REQUEST-----
