Certificate:
    Data:
        Version: 1 (0x0)
        Serial Number:
            27:45:33:71:5e:9f:7b:f7:65:2c:b8:82:91:53:8f:53:05:98:f5:df
        Signature Algorithm: NULL
        Issuer: CN = db
        Validity
            Not Before: Apr 10 13:05:16 2020 GMT
            Not After : Feb 22 13:05:16 2029 GMT
        Subject: CN = db
        Subject Public Key Info:
            Public Key Algorithm: rsaEncryption
                RSA Public-Key: (2048 bit)
                Modulus:
                    00:a4:db:dc:f9:ed:47:f5:fa:51:9c:39:e0:d0:a5:
                    98:81:8d:82:1b:6d:49:c6:23:ed:af:76:51:17:26:
                    7a:aa:62:d9:a6:a8:7f:fe:2b:ce:b3:47:49:a0:0c:
                    e6:20:bc:9a:2d:9b:4b:cd:9d:f4:7a:66:00:48:30:
                    7d:16:2a:c0:5b:01:6b:bc:ab:34:ff:ae:6a:d4:17:
                    62:1e:3b:95:f8:df:2e:b1:db:da:53:ef:09:23:08:
                    ee:cd:15:53:3c:de:67:b7:d3:16:03:b7:7a:06:2e:
                    da:f2:84:d2:1c:6b:99:71:37:98:bd:66:65:77:68:
                    62:0f:24:a6:a7:9c:fe:90:c5:31:ef:7a:26:fa:55:
                    ba:94:f8:8c:29:67:ca:30:7b:f2:00:83:cf:f6:2b:
                    15:35:0d:8d:a3:97:22:f4:06:7a:f1:19:15:ac:b5:
                    6b:8f:3d:9b:07:cb:bf:f9:00:fb:c8:5a:b2:ad:13:
                    f1:ba:be:ca:e9:eb:b6:57:fc:51:46:44:0e:19:2b:
                    7a:a5:06:ae:5a:cd:26:e9:a6:4b:ae:f9:37:36:f9:
                    fd:37:96:c9:de:16:b0:71:60:1c:1a:ef:b6:ab:17:
                    f7:ce:00:44:c4:29:19:7d:88:f0:2f:16:b7:ba:9f:
                    7f:9a:ad:7b:6a:e0:6f:86:71:c3:ab:3d:b4:4b:7e:
                    77:df
                Exponent: 65537 (0x10001)
    Signature Algorithm: NULL
-----BEGIN CERTIFICATE-----
MIICoTCCAYkCFB89vhi87lSAwggIa2stDT8b7ZVpMA0GCSqGSIb3DQEBCwUAMA0x
CzAJBgNVBAMMAmRiMB4XDTIwMDQxMDEzMDUxNloXDTI5MDIyMjEzMDUxNlowDTEL
MAkGA1UEAwwCZGIwggEiMA0GCSqGSIb3DQEBAQUAA4IBDwAwggEKAoIBAQCk29z5
7Uf1+lGcOeDQpZiBjYIbbUnGI+2vdlEXJnqqYtmmqH/+K86zR0mgDOYgvJotm0vN
nfR6ZgBIMH0WKsBbAWu8qzT/rmrUF2IeO5X43y6x29pT7wkjCO7NFVM83me30xYD
t3oGLtryhNIca5lxN5i9ZmV3aGIPJKannP6QxTHveib6VbqU+IwpZ8owe/IAg8/2
KxU1DY2jlyL0BnrxGRWstWuPPZsHy7/5APvIWrKtE/G6vsrp67ZX/FFGRA4ZK3ql
Bq5azSbppkuu+Tc2+f03lsneFrBxYBwa77arF/fOAETEKRl9iPAvFre6n3+arXtq
4G+GccOrPbRLfnffAgMBAAEwDQYJKoZIhvcNAQELBQADggEBAIpBJ0vmcKjJ4Okc
aBvLahUPp/AfKuNdt6oVHKdtHNhAJWg1QhWod/YcROwSxjOYWbVRHKYntXZTGoeA
9Mc5/iP0H00L7mFc6SCUDGtSIRaHCRZF6RsP+QlkJ+kO0Kme/4omkopAiZ0wfqgz
ybGiXu/UxnbNPuPffQWcljPZHSfDEkefOFgoV5pNCaiT7HJ941b1QhsV3mIN95bq
woKiHGO9xlpBKcil9z8eH10hcn9hzVc97/CRkeLjjk4wKzf0/CNuUmDk1710SCcf
gdAuqyRUjRYT4AvrI86cm6kbzHPiSkRg4VTz7hj2mP2bb0CLxpgfVmr6i1SwgFMB
nMyt1oU=
-----END CERTIFICATE-----
